(dp1
S'howMany'
p2
I20
sS'subjCode'
p3
V8
sS'screenMode'
p4
Vdebug
p5
sS'breakEvery'
p6
I15
sS'expName'
p7
VflankerEEG
p8
sS'dateStr'
p9
V2016_Jun_28_1720
p10
sS'seed'
p11
I10
sS'useParallel'
p12
Vno
p13
s.