(dp1
S'expName'
p2
VflankerEEG
p3
sS'howMany'
p4
I20
sS'subjCode'
p5
Vs1
p6
sS'screenMode'
p7
Vdebug
p8
sS'breakEvery'
p9
I15
sS'seed'
p10
I10
sS'dateStr'
p11
V2016_Jun_28_1644
p12
sS'useParallel'
p13
Vno
p14
s.