(dp1
S'howMany'
p2
I20
sS'screenMode'
p3
Vdebug
p4
sS'subjCode'
p5
V32
p6
sS'breakEvery'
p7
I15
sS'expName'
p8
VstroopEEG
p9
sS'dateStr'
p10
V2016_Jun_28_1633
p11
sS'seed'
p12
I10
sS'useParallel'
p13
Vno
p14
s.